; Function Attrs: mustprogress nofree nounwind willreturn memory(read, argmem: readwrite) uwtable
define internal fastcc noundef ptr @_ZN5faiss12_GLOBAL__N_114fix_ivf_fieldsEPNS_8IndexIVFE(ptr noundef returned %0) unnamed_addr #15 {
  %2 = getelementptr inbounds i8, ptr %0, i64 48
  %3 = load ptr, ptr %2, align 8
  %4 = icmp eq ptr %3, null
  br i1 %4, label %_ZN5faiss12_GLOBAL__N_116get_trains_aloneEPKNS_5IndexE.exit, label %5

5:                                                ; preds = %1
  %6 = tail call ptr @__dynamic_cast(ptr nonnull %3, ptr nonnull @_ZTIN5faiss5IndexE, ptr nonnull @_ZTIN5faiss9IndexFlatE, i64 0) #27
  %.not19.i = icmp eq ptr %6, null
  br i1 %.not19.i, label %.critedge8.i, label %_ZN5faiss12_GLOBAL__N_116get_trains_aloneEPKNS_5IndexE.exit

.critedge8.i:                                     ; preds = %5
  %7 = tail call ptr @__dynamic_cast(ptr nonnull %3, ptr nonnull @_ZTIN5faiss5IndexE, ptr nonnull @_ZTIN5faiss19MultiIndexQuantizerE, i64 0) #27
  %.not.i = icmp eq ptr %7, null
  br i1 %.not.i, label %8, label %_ZN5faiss12_GLOBAL__N_116get_trains_aloneEPKNS_5IndexE.exit

8:                                                ; preds = %.critedge8.i
  %9 = tail call ptr @__dynamic_cast(ptr nonnull %3, ptr nonnull @_ZTIN5faiss5IndexE, ptr nonnull @_ZTIN5faiss23ResidualCoarseQuantizerE, i64 0) #27
  %.not20.i = icmp eq ptr %9, null
  %.mux15.i = select i1 %.not20.i, i8 2, i8 1
  br label %_ZN5faiss12_GLOBAL__N_116get_trains_aloneEPKNS_5IndexE.exit

_ZN5faiss12_GLOBAL__N_116get_trains_aloneEPKNS_5IndexE.exit: ; preds = %1, %5, %.critedge8.i, %8
  %.0.i = phi i8 [ 0, %5 ], [ 1, %.critedge8.i ], [ 2, %1 ], [ %.mux15.i, %8 ]
  %10 = getelementptr inbounds i8, ptr %0, i64 64
  store i8 %.0.i, ptr %10, align 8
  %11 = getelementptr inbounds i8, ptr %0, i64 28
  %12 = load i32, ptr %11, align 4
  %13 = icmp eq i32 %12, 0
  %14 = getelementptr inbounds i8, ptr %0, i64 81
  %15 = zext i1 %13 to i8
  store i8 %15, ptr %14, align 1
  %16 = getelementptr inbounds i8, ptr %0, i64 65
  store i8 1, ptr %16, align 1
  ret ptr %0
}